(dp0
VtearRate
p1
(dp2
Vreduced
p3
Vno lenses
p4
sVnormal
p5
(dp6
Vastigmatic
p7
(dp8
Vyes
p9
(dp10
Vprescript
p11
(dp12
Vmyope
p13
Vhard
p14
sVhyper
p15
(dp16
Vage
p17
(dp18
Vyoung
p19
Vhard
p20
sVpresbyopic
p21
Vno lenses
p22
sVpre
p23
Vno lenses
p24
sssssVno
p25
(dp26
g17
(dp27
Vyoung
p28
Vsoft
p29
sVpresbyopic
p30
(dp31
g11
(dp32
Vmyope
p33
Vno lenses
p34
sVhyper
p35
Vsoft
p36
sssVpre
p37
Vsoft
p38
ssssss.